ARM GAS  C:\Users\nikod\AppData\Local\Temp\ccdnJtot.s 			page 1


   1              		.syntax unified
   2              		.cpu cortex-m3
   3              		.fpu softvfp
   4              		.eabi_attribute 20, 1
   5              		.eabi_attribute 21, 1
   6              		.eabi_attribute 23, 3
   7              		.eabi_attribute 24, 1
   8              		.eabi_attribute 25, 1
   9              		.eabi_attribute 26, 1
  10              		.eabi_attribute 30, 1
  11              		.eabi_attribute 34, 1
  12              		.eabi_attribute 18, 4
  13              		.thumb
  14              		.syntax unified
  15              		.file	"main.c"
  16              		.text
  17              	.Ltext0:
  18              		.cfi_sections	.debug_frame
  19              		.section	.text.WriteHead,"ax",%progbits
  20              		.align	2
  21              		.global	WriteHead
  22              		.thumb
  23              		.thumb_func
  24              		.type	WriteHead, %function
  25              	WriteHead:
  26              	.LFB64:
  27              		.file 1 "main.c"
   1:main.c        **** /* ========================================
   2:main.c        ****  *
   3:main.c        ****  * Copyright Jeferson Rondon - Nicolas Pastran,2019
   4:main.c        ****  * All Rights Reserved
   5:main.c        ****  * UNPUBLISHED, LICENSED SOFTWARE.
   6:main.c        ****  *
   7:main.c        ****  * CONFIDENTIAL AND PROPRIETARY INFORMATION
   8:main.c        ****  *
   9:main.c        ****  * ========================================
  10:main.c        **** */
  11:main.c        **** #include "project.h"
  12:main.c        **** #include<stdio.h>
  13:main.c        **** #include <FS.h>
  14:main.c        **** #include <stdbool.h>
  15:main.c        **** 
  16:main.c        **** 
  17:main.c        **** const char ctemp[]= "T,";//Temperatura
  18:main.c        **** const char cvolt[]= "V,";//Voltaje
  19:main.c        **** const char cspeed[]="S,";//Speed Velocidad
  20:main.c        **** const char ctime[]= "t\r\n";//
  21:main.c        **** 
  22:main.c        **** //Variables de manejo de archivos
  23:main.c        **** FS_FILE *pFile;
  24:main.c        **** char file[15]="DATOS.txt";
  25:main.c        **** char acBuffer[200];
  26:main.c        **** //Varibles de interupcion
  27:main.c        **** volatile char dato_bluetooht='0';
  28:main.c        **** volatile int8 conteo=0;
  29:main.c        **** char muestra[6];
  30:main.c        **** 
ARM GAS  C:\Users\nikod\AppData\Local\Temp\ccdnJtot.s 			page 2


  31:main.c        **** //Variables usadas en el main
  32:main.c        **** char temperatura[8];
  33:main.c        **** volatile int32 conteo_total=0 ,numero_de_muestra=6;
  34:main.c        **** volatile int16 tiempo_muestreo=1, tiempo_total=1;
  35:main.c        **** 
  36:main.c        **** volatile bool bandera=false;
  37:main.c        **** 
  38:main.c        **** int16 x=0;
  39:main.c        **** 
  40:main.c        **** void WriteHead(char sourse){
  28              		.loc 1 40 0
  29              		.cfi_startproc
  30              		@ args = 0, pretend = 0, frame = 0
  31              		@ frame_needed = 0, uses_anonymous_args = 0
  32              	.LVL0:
  33 0000 70B5     		push	{r4, r5, r6, lr}
  34              		.cfi_def_cfa_offset 16
  35              		.cfi_offset 4, -16
  36              		.cfi_offset 5, -12
  37              		.cfi_offset 6, -8
  38              		.cfi_offset 14, -4
  39 0002 0646     		mov	r6, r0
  40              	.LVL1:
  41:main.c        ****     char i=0;
  41              		.loc 1 41 0
  42 0004 0024     		movs	r4, #0
  42:main.c        ****     while(pFile!=0){
  43              		.loc 1 42 0
  44 0006 0DE0     		b	.L2
  45              	.LVL2:
  46              	.L3:
  43:main.c        ****         pFile = FS_FOpen(file,"r");//Intenta abrir el archivo, si puede permanece en el while
  47              		.loc 1 43 0
  48 0008 1B4D     		ldr	r5, .L10
  49 000a 1C49     		ldr	r1, .L10+4
  50 000c 2846     		mov	r0, r5
  51 000e FFF7FEFF 		bl	FS_FOpen
  52              	.LVL3:
  53 0012 1B4B     		ldr	r3, .L10+8
  54 0014 1860     		str	r0, [r3]
  44:main.c        ****         sprintf(file,"DATOS%d.txt",i);
  55              		.loc 1 44 0
  56 0016 2246     		mov	r2, r4
  57 0018 1A49     		ldr	r1, .L10+12
  58 001a 2846     		mov	r0, r5
  59 001c FFF7FEFF 		bl	sprintf
  60              	.LVL4:
  45:main.c        ****         i++;
  61              		.loc 1 45 0
  62 0020 0134     		adds	r4, r4, #1
  63              	.LVL5:
  64 0022 E4B2     		uxtb	r4, r4
  65              	.LVL6:
  66              	.L2:
  42:main.c        ****         pFile = FS_FOpen(file,"r");//Intenta abrir el archivo, si puede permanece en el while
  67              		.loc 1 42 0
  68 0024 164B     		ldr	r3, .L10+8
ARM GAS  C:\Users\nikod\AppData\Local\Temp\ccdnJtot.s 			page 3


  69 0026 1B68     		ldr	r3, [r3]
  70 0028 002B     		cmp	r3, #0
  71 002a EDD1     		bne	.L3
  46:main.c        ****     }
  47:main.c        ****     pFile = FS_FOpen(file,"a");// Crea el nuevo archivo
  72              		.loc 1 47 0
  73 002c 1649     		ldr	r1, .L10+16
  74 002e 1248     		ldr	r0, .L10
  75 0030 FFF7FEFF 		bl	FS_FOpen
  76              	.LVL7:
  77 0034 124B     		ldr	r3, .L10+8
  78 0036 1860     		str	r0, [r3]
  48:main.c        ****     
  49:main.c        ****     if (pFile != 0) {
  79              		.loc 1 49 0
  80 0038 D0B1     		cbz	r0, .L4
  50:main.c        ****         if(sourse==0x00){
  81              		.loc 1 50 0
  82 003a 26B9     		cbnz	r6, .L5
  51:main.c        ****         FS_Write(pFile, ctemp, strlen(ctemp));// Escribe la cabecera cotrespondiente a Temp
  83              		.loc 1 51 0
  84 003c 0222     		movs	r2, #2
  85 003e 1349     		ldr	r1, .L10+20
  86 0040 FFF7FEFF 		bl	FS_Write
  87              	.LVL8:
  88 0044 0AE0     		b	.L6
  89              	.L5:
  52:main.c        ****         }
  53:main.c        ****         else if(sourse==0x01){
  90              		.loc 1 53 0
  91 0046 012E     		cmp	r6, #1
  92 0048 04D1     		bne	.L7
  54:main.c        ****         FS_Write(pFile, cvolt, strlen(cvolt));// Escribe la cabecera cotrespondiente a Volt
  93              		.loc 1 54 0
  94 004a 0222     		movs	r2, #2
  95 004c 1049     		ldr	r1, .L10+24
  96 004e FFF7FEFF 		bl	FS_Write
  97              	.LVL9:
  98 0052 03E0     		b	.L6
  99              	.L7:
  55:main.c        ****         }
  56:main.c        ****         else{//0x11
  57:main.c        ****         FS_Write(pFile, cspeed, strlen(cspeed));// Escribe la cabecera cotrespondiente a Velo
 100              		.loc 1 57 0
 101 0054 0222     		movs	r2, #2
 102 0056 0F49     		ldr	r1, .L10+28
 103 0058 FFF7FEFF 		bl	FS_Write
 104              	.LVL10:
 105              	.L6:
  58:main.c        ****         }
  59:main.c        ****         FS_Write(pFile, ctime, strlen(ctime));//Simepre escribe la de tiempo
 106              		.loc 1 59 0
 107 005c 084C     		ldr	r4, .L10+8
 108              	.LVL11:
 109 005e 0322     		movs	r2, #3
 110 0060 0D49     		ldr	r1, .L10+32
 111 0062 2068     		ldr	r0, [r4]
ARM GAS  C:\Users\nikod\AppData\Local\Temp\ccdnJtot.s 			page 4


 112 0064 FFF7FEFF 		bl	FS_Write
 113              	.LVL12:
  60:main.c        ****         FS_FClose(pFile);
 114              		.loc 1 60 0
 115 0068 2068     		ldr	r0, [r4]
 116 006a FFF7FEFF 		bl	FS_FClose
 117              	.LVL13:
 118 006e 70BD     		pop	{r4, r5, r6, pc}
 119              	.LVL14:
 120              	.L4:
  61:main.c        ****     }
  62:main.c        ****     else{
  63:main.c        ****         LCD_PrintString("Eror de escritura");
 121              		.loc 1 63 0
 122 0070 0A48     		ldr	r0, .L10+36
 123 0072 FFF7FEFF 		bl	LCD_PrintString
 124              	.LVL15:
 125 0076 70BD     		pop	{r4, r5, r6, pc}
 126              	.LVL16:
 127              	.L11:
 128              		.align	2
 129              	.L10:
 130 0078 00000000 		.word	.LANCHOR0
 131 007c 00000000 		.word	.LC0
 132 0080 00000000 		.word	pFile
 133 0084 04000000 		.word	.LC1
 134 0088 10000000 		.word	.LC2
 135 008c 00000000 		.word	.LANCHOR1
 136 0090 04000000 		.word	.LANCHOR1+4
 137 0094 08000000 		.word	.LANCHOR1+8
 138 0098 0C000000 		.word	.LANCHOR1+12
 139 009c 14000000 		.word	.LC3
 140              		.cfi_endproc
 141              	.LFE64:
 142              		.size	WriteHead, .-WriteHead
 143              		.section	.text.InterrupRx,"ax",%progbits
 144              		.align	2
 145              		.global	InterrupRx
 146              		.thumb
 147              		.thumb_func
 148              		.type	InterrupRx, %function
 149              	InterrupRx:
 150              	.LFB67:
  64:main.c        ****     }
  65:main.c        ****   
  66:main.c        **** }
  67:main.c        **** 
  68:main.c        **** /*
  69:main.c        **** void WriteData(){
  70:main.c        ****     FS_FOpen(file, "r");
  71:main.c        ****     char aux[15]="Trama";
  72:main.c        ****     if (pFile != 0) {
  73:main.c        ****         FS_Write(pFile, ctemp, strlen(ctemp));// Escribe la cabecera cotrespondiente a Temp
  74:main.c        ****     }else{
  75:main.c        ****         LCD_PrintString("Eror de escritura");
  76:main.c        ****     }
  77:main.c        **** } // Fin de Write Data Modo de llamar int16 dato;WriteData(&dato,1);
ARM GAS  C:\Users\nikod\AppData\Local\Temp\ccdnJtot.s 			page 5


  78:main.c        **** */
  79:main.c        **** void ReadSD(){
  80:main.c        ****     pFile = FS_FOpen(file,"r");
  81:main.c        ****     int i;
  82:main.c        ****     if (pFile != 0) {
  83:main.c        ****         do{
  84:main.c        ****             i = FS_FRead(acBuffer, 1, sizeof(acBuffer) - 1, pFile);//Lee caracter por caracter y lo
  85:main.c        ****         }while (i);
  86:main.c        ****         FS_FClose(pFile);
  87:main.c        ****     }
  88:main.c        **** }
  89:main.c        **** 
  90:main.c        **** void SendFile(){
  91:main.c        ****     unsigned int i=0;
  92:main.c        ****     char aux='T';
  93:main.c        ****     while(acBuffer[i]!='\r'){
  94:main.c        ****         switch(acBuffer[i]){
  95:main.c        ****         case 'T':
  96:main.c        ****             aux='T';
  97:main.c        ****             break;
  98:main.c        ****         case 'V':
  99:main.c        ****             aux='V';
 100:main.c        ****             break;
 101:main.c        ****         case 'S':
 102:main.c        ****             aux='S';
 103:main.c        ****             break;
 104:main.c        ****         default:
 105:main.c        ****             break;
 106:main.c        ****         }      
 107:main.c        ****     i++;
 108:main.c        ****     }
 109:main.c        ****     i=1;
 110:main.c        ****     while(sizeof(acBuffer)>i){
 111:main.c        ****             sprintf(temperatura,"*%c%d,%d*",aux,acBuffer[4*i],acBuffer[4*i+1]);
 112:main.c        ****             UART_PutString(temperatura);
 113:main.c        ****     }
 114:main.c        **** 
 115:main.c        **** }
 116:main.c        **** 
 117:main.c        **** 
 118:main.c        **** 
 119:main.c        **** CY_ISR(InterrupRx){
 151              		.loc 1 119 0
 152              		.cfi_startproc
 153              		@ args = 0, pretend = 0, frame = 0
 154              		@ frame_needed = 0, uses_anonymous_args = 0
 155 0000 10B5     		push	{r4, lr}
 156              		.cfi_def_cfa_offset 8
 157              		.cfi_offset 4, -8
 158              		.cfi_offset 14, -4
 120:main.c        ****     dato_bluetooht=UART_GetChar();//recibe el dato del bluetooth
 159              		.loc 1 120 0
 160 0002 FFF7FEFF 		bl	UART_GetChar
 161              	.LVL17:
 162 0006 4A4B     		ldr	r3, .L26
 163 0008 D873     		strb	r0, [r3, #15]
 121:main.c        ****     switch (dato_bluetooht){
ARM GAS  C:\Users\nikod\AppData\Local\Temp\ccdnJtot.s 			page 6


 164              		.loc 1 121 0
 165 000a DB7B     		ldrb	r3, [r3, #15]	@ zero_extendqisi2
 166 000c 643B     		subs	r3, r3, #100
 167 000e 0E2B     		cmp	r3, #14
 168 0010 7AD8     		bhi	.L13
 169 0012 DFE803F0 		tbb	[pc, r3]
 170              	.L15:
 171 0016 76       		.byte	(.L14-.L15)/2
 172 0017 79       		.byte	(.L13-.L15)/2
 173 0018 16       		.byte	(.L16-.L15)/2
 174 0019 79       		.byte	(.L13-.L15)/2
 175 001a 79       		.byte	(.L13-.L15)/2
 176 001b 79       		.byte	(.L13-.L15)/2
 177 001c 46       		.byte	(.L17-.L15)/2
 178 001d 79       		.byte	(.L13-.L15)/2
 179 001e 79       		.byte	(.L13-.L15)/2
 180 001f 08       		.byte	(.L18-.L15)/2
 181 0020 79       		.byte	(.L13-.L15)/2
 182 0021 79       		.byte	(.L13-.L15)/2
 183 0022 79       		.byte	(.L13-.L15)/2
 184 0023 79       		.byte	(.L13-.L15)/2
 185 0024 0C       		.byte	(.L19-.L15)/2
 186 0025 00       		.p2align 1
 187              	.L18:
 122:main.c        ****         case 'm':
 123:main.c        ****         {
 124:main.c        ****             bandera=true;
 188              		.loc 1 124 0
 189 0026 0122     		movs	r2, #1
 190 0028 424B     		ldr	r3, .L26+4
 191 002a 1A70     		strb	r2, [r3]
 125:main.c        ****             break;
 192              		.loc 1 125 0
 193 002c 10BD     		pop	{r4, pc}
 194              	.L19:
 126:main.c        ****         }
 127:main.c        ****         case 'r':{
 128:main.c        ****             WriteHead(0x00);//Crea cabecera de temperatura
 195              		.loc 1 128 0
 196 002e 0020     		movs	r0, #0
 197 0030 FFF7FEFF 		bl	WriteHead
 198              	.LVL18:
 129:main.c        ****             LCD_ClearDisplay();
 199              		.loc 1 129 0
 200 0034 0120     		movs	r0, #1
 201 0036 FFF7FEFF 		bl	LCD_WriteControl
 202              	.LVL19:
 130:main.c        ****             LCD_PrintString("Inicio");            
 203              		.loc 1 130 0
 204 003a 3F48     		ldr	r0, .L26+8
 205 003c FFF7FEFF 		bl	LCD_PrintString
 206              	.LVL20:
 131:main.c        ****             break;
 207              		.loc 1 131 0
 208 0040 10BD     		pop	{r4, pc}
 209              	.L16:
 210              	.LVL21:
ARM GAS  C:\Users\nikod\AppData\Local\Temp\ccdnJtot.s 			page 7


 211              	.LBB2:
 132:main.c        ****         }
 133:main.c        ****         case 'f':
 134:main.c        ****         {
 135:main.c        ****             unsigned char i=1;
 136:main.c        ****             tiempo_muestreo=muestra[0];
 212              		.loc 1 136 0
 213 0042 3E4B     		ldr	r3, .L26+12
 214 0044 1A78     		ldrb	r2, [r3]	@ zero_extendqisi2
 215 0046 3A4B     		ldr	r3, .L26
 216 0048 1A82     		strh	r2, [r3, #16]	@ movhi
 135:main.c        ****             tiempo_muestreo=muestra[0];
 217              		.loc 1 135 0
 218 004a 0123     		movs	r3, #1
 137:main.c        ****             while(conteo>i){
 219              		.loc 1 137 0
 220 004c 0BE0     		b	.L21
 221              	.LVL22:
 222              	.L22:
 138:main.c        ****                 tiempo_muestreo=muestra[i]+10*tiempo_muestreo;        
 223              		.loc 1 138 0
 224 004e 3B4A     		ldr	r2, .L26+12
 225 0050 D25C     		ldrb	r2, [r2, r3]	@ zero_extendqisi2
 226 0052 3748     		ldr	r0, .L26
 227 0054 018A     		ldrh	r1, [r0, #16]
 228 0056 01EB8101 		add	r1, r1, r1, lsl #2
 229 005a 4C00     		lsls	r4, r1, #1
 230 005c 2244     		add	r2, r2, r4
 231 005e 12B2     		sxth	r2, r2
 232 0060 0282     		strh	r2, [r0, #16]	@ movhi
 139:main.c        ****                 i++;
 233              		.loc 1 139 0
 234 0062 0133     		adds	r3, r3, #1
 235              	.LVL23:
 236 0064 DBB2     		uxtb	r3, r3
 237              	.LVL24:
 238              	.L21:
 137:main.c        ****             while(conteo>i){
 239              		.loc 1 137 0
 240 0066 334A     		ldr	r2, .L26+4
 241 0068 5278     		ldrb	r2, [r2, #1]	@ zero_extendqisi2
 242 006a 52B2     		sxtb	r2, r2
 243 006c 9A42     		cmp	r2, r3
 244 006e EEDC     		bgt	.L22
 140:main.c        ****             }
 141:main.c        ****             LCD_Position(1,11);
 245              		.loc 1 141 0
 246 0070 0B21     		movs	r1, #11
 247 0072 0120     		movs	r0, #1
 248 0074 FFF7FEFF 		bl	LCD_Position
 249              	.LVL25:
 142:main.c        ****             LCD_PrintNumber(tiempo_muestreo);
 250              		.loc 1 142 0
 251 0078 2D4C     		ldr	r4, .L26
 252 007a 208A     		ldrh	r0, [r4, #16]
 253 007c 80B2     		uxth	r0, r0
 254 007e FFF7FEFF 		bl	LCD_PrintU32Number
ARM GAS  C:\Users\nikod\AppData\Local\Temp\ccdnJtot.s 			page 8


 255              	.LVL26:
 143:main.c        ****             conteo=0;
 256              		.loc 1 143 0
 257 0082 2C49     		ldr	r1, .L26+4
 258 0084 0020     		movs	r0, #0
 259 0086 4870     		strb	r0, [r1, #1]
 144:main.c        ****             conteo_total=0;
 260              		.loc 1 144 0
 261 0088 4860     		str	r0, [r1, #4]
 145:main.c        ****             numero_de_muestra=(60*tiempo_total)/tiempo_muestreo;//60 para manejarlo en minutos por
 262              		.loc 1 145 0
 263 008a 638A     		ldrh	r3, [r4, #18]
 264 008c 1BB2     		sxth	r3, r3
 265 008e C3EB0313 		rsb	r3, r3, r3, lsl #4
 266 0092 9A00     		lsls	r2, r3, #2
 267 0094 238A     		ldrh	r3, [r4, #16]
 268 0096 1BB2     		sxth	r3, r3
 269 0098 92FBF3F2 		sdiv	r2, r2, r3
 270 009c 6261     		str	r2, [r4, #20]
 146:main.c        ****             bandera=false;
 271              		.loc 1 146 0
 272 009e 0870     		strb	r0, [r1]
 147:main.c        ****             
 148:main.c        ****             break;
 273              		.loc 1 148 0
 274 00a0 10BD     		pop	{r4, pc}
 275              	.L17:
 276              	.LVL27:
 277              	.LBE2:
 278              	.LBB3:
 149:main.c        ****         }
 150:main.c        ****         
 151:main.c        ****         case 'j':
 152:main.c        ****         {
 153:main.c        ****             unsigned char i=1;
 154:main.c        ****             tiempo_total=muestra[0];
 279              		.loc 1 154 0
 280 00a2 264B     		ldr	r3, .L26+12
 281 00a4 1A78     		ldrb	r2, [r3]	@ zero_extendqisi2
 282 00a6 224B     		ldr	r3, .L26
 283 00a8 5A82     		strh	r2, [r3, #18]	@ movhi
 153:main.c        ****             tiempo_total=muestra[0];
 284              		.loc 1 153 0
 285 00aa 0123     		movs	r3, #1
 155:main.c        ****             while(conteo>i){
 286              		.loc 1 155 0
 287 00ac 0BE0     		b	.L23
 288              	.LVL28:
 289              	.L24:
 156:main.c        ****                 tiempo_total=muestra[i]+10*tiempo_total;        
 290              		.loc 1 156 0
 291 00ae 234A     		ldr	r2, .L26+12
 292 00b0 D25C     		ldrb	r2, [r2, r3]	@ zero_extendqisi2
 293 00b2 1F48     		ldr	r0, .L26
 294 00b4 418A     		ldrh	r1, [r0, #18]
 295 00b6 01EB8101 		add	r1, r1, r1, lsl #2
 296 00ba 4C00     		lsls	r4, r1, #1
ARM GAS  C:\Users\nikod\AppData\Local\Temp\ccdnJtot.s 			page 9


 297 00bc 2244     		add	r2, r2, r4
 298 00be 12B2     		sxth	r2, r2
 299 00c0 4282     		strh	r2, [r0, #18]	@ movhi
 157:main.c        ****                 i++;
 300              		.loc 1 157 0
 301 00c2 0133     		adds	r3, r3, #1
 302              	.LVL29:
 303 00c4 DBB2     		uxtb	r3, r3
 304              	.LVL30:
 305              	.L23:
 155:main.c        ****             while(conteo>i){
 306              		.loc 1 155 0
 307 00c6 1B4A     		ldr	r2, .L26+4
 308 00c8 5278     		ldrb	r2, [r2, #1]	@ zero_extendqisi2
 309 00ca 52B2     		sxtb	r2, r2
 310 00cc 9A42     		cmp	r2, r3
 311 00ce EEDC     		bgt	.L24
 158:main.c        ****             }
 159:main.c        ****             LCD_Position(0,11);
 312              		.loc 1 159 0
 313 00d0 0B21     		movs	r1, #11
 314 00d2 0020     		movs	r0, #0
 315 00d4 FFF7FEFF 		bl	LCD_Position
 316              	.LVL31:
 160:main.c        ****             LCD_PrintNumber(tiempo_total);
 317              		.loc 1 160 0
 318 00d8 154C     		ldr	r4, .L26
 319 00da 608A     		ldrh	r0, [r4, #18]
 320 00dc 80B2     		uxth	r0, r0
 321 00de FFF7FEFF 		bl	LCD_PrintU32Number
 322              	.LVL32:
 161:main.c        ****             conteo=0;       
 323              		.loc 1 161 0
 324 00e2 1449     		ldr	r1, .L26+4
 325 00e4 0020     		movs	r0, #0
 326 00e6 4870     		strb	r0, [r1, #1]
 162:main.c        ****             conteo_total=0;
 327              		.loc 1 162 0
 328 00e8 4860     		str	r0, [r1, #4]
 163:main.c        ****             numero_de_muestra=(60*tiempo_total)/tiempo_muestreo;//60 para manejarlo en minutos por
 329              		.loc 1 163 0
 330 00ea 638A     		ldrh	r3, [r4, #18]
 331 00ec 1BB2     		sxth	r3, r3
 332 00ee C3EB0313 		rsb	r3, r3, r3, lsl #4
 333 00f2 9A00     		lsls	r2, r3, #2
 334 00f4 238A     		ldrh	r3, [r4, #16]
 335 00f6 1BB2     		sxth	r3, r3
 336 00f8 92FBF3F2 		sdiv	r2, r2, r3
 337 00fc 6261     		str	r2, [r4, #20]
 164:main.c        ****             bandera=false;
 338              		.loc 1 164 0
 339 00fe 0870     		strb	r0, [r1]
 165:main.c        ****             
 166:main.c        ****             break;
 340              		.loc 1 166 0
 341 0100 10BD     		pop	{r4, pc}
 342              	.L14:
ARM GAS  C:\Users\nikod\AppData\Local\Temp\ccdnJtot.s 			page 10


 343              	.LBE3:
 167:main.c        ****         }
 168:main.c        ****         
 169:main.c        ****         case 'd':{
 170:main.c        ****             FS_Remove (file);//Borra el ultimo archivo
 344              		.loc 1 170 0
 345 0102 0B48     		ldr	r0, .L26
 346 0104 FFF7FEFF 		bl	FS_Remove
 347              	.LVL33:
 348              	.L13:
 171:main.c        ****         }
 172:main.c        ****         default:
 173:main.c        ****         {
 174:main.c        ****             if (bandera==true)
 349              		.loc 1 174 0
 350 0108 0A4B     		ldr	r3, .L26+4
 351 010a 1B78     		ldrb	r3, [r3]	@ zero_extendqisi2
 352 010c 13F0FF0F 		tst	r3, #255
 353 0110 0CD0     		beq	.L12
 175:main.c        ****             {
 176:main.c        ****                 muestra[conteo]=dato_bluetooht-0x30;
 354              		.loc 1 176 0
 355 0112 084A     		ldr	r2, .L26+4
 356 0114 5378     		ldrb	r3, [r2, #1]	@ zero_extendqisi2
 357 0116 5BB2     		sxtb	r3, r3
 358 0118 0549     		ldr	r1, .L26
 359 011a C97B     		ldrb	r1, [r1, #15]	@ zero_extendqisi2
 360 011c 3039     		subs	r1, r1, #48
 361 011e 0748     		ldr	r0, .L26+12
 362 0120 C154     		strb	r1, [r0, r3]
 177:main.c        ****                 conteo=conteo+1;  
 363              		.loc 1 177 0
 364 0122 5378     		ldrb	r3, [r2, #1]	@ zero_extendqisi2
 365 0124 5BB2     		sxtb	r3, r3
 366 0126 0133     		adds	r3, r3, #1
 367 0128 5BB2     		sxtb	r3, r3
 368 012a 5370     		strb	r3, [r2, #1]
 369              	.L12:
 370 012c 10BD     		pop	{r4, pc}
 371              	.L27:
 372 012e 00BF     		.align	2
 373              	.L26:
 374 0130 00000000 		.word	.LANCHOR0
 375 0134 00000000 		.word	.LANCHOR2
 376 0138 28000000 		.word	.LC4
 377 013c 00000000 		.word	muestra
 378              		.cfi_endproc
 379              	.LFE67:
 380              		.size	InterrupRx, .-InterrupRx
 381              		.section	.text.ReadSD,"ax",%progbits
 382              		.align	2
 383              		.global	ReadSD
 384              		.thumb
 385              		.thumb_func
 386              		.type	ReadSD, %function
 387              	ReadSD:
 388              	.LFB65:
ARM GAS  C:\Users\nikod\AppData\Local\Temp\ccdnJtot.s 			page 11


  79:main.c        ****     pFile = FS_FOpen(file,"r");
 389              		.loc 1 79 0
 390              		.cfi_startproc
 391              		@ args = 0, pretend = 0, frame = 0
 392              		@ frame_needed = 0, uses_anonymous_args = 0
 393 0000 08B5     		push	{r3, lr}
 394              		.cfi_def_cfa_offset 8
 395              		.cfi_offset 3, -8
 396              		.cfi_offset 14, -4
  80:main.c        ****     int i;
 397              		.loc 1 80 0
 398 0002 0A49     		ldr	r1, .L32
 399 0004 0A48     		ldr	r0, .L32+4
 400 0006 FFF7FEFF 		bl	FS_FOpen
 401              	.LVL34:
 402 000a 0A4B     		ldr	r3, .L32+8
 403 000c 1860     		str	r0, [r3]
  82:main.c        ****         do{
 404              		.loc 1 82 0
 405 000e 60B1     		cbz	r0, .L28
 406              	.L30:
  84:main.c        ****         }while (i);
 407              		.loc 1 84 0 discriminator 1
 408 0010 084B     		ldr	r3, .L32+8
 409 0012 1B68     		ldr	r3, [r3]
 410 0014 C722     		movs	r2, #199
 411 0016 0121     		movs	r1, #1
 412 0018 0748     		ldr	r0, .L32+12
 413 001a FFF7FEFF 		bl	FS_FRead
 414              	.LVL35:
  85:main.c        ****         FS_FClose(pFile);
 415              		.loc 1 85 0 discriminator 1
 416 001e 0028     		cmp	r0, #0
 417 0020 F6D1     		bne	.L30
  86:main.c        ****     }
 418              		.loc 1 86 0
 419 0022 044B     		ldr	r3, .L32+8
 420 0024 1868     		ldr	r0, [r3]
 421              	.LVL36:
 422 0026 FFF7FEFF 		bl	FS_FClose
 423              	.LVL37:
 424              	.L28:
 425 002a 08BD     		pop	{r3, pc}
 426              	.L33:
 427              		.align	2
 428              	.L32:
 429 002c 00000000 		.word	.LC0
 430 0030 00000000 		.word	.LANCHOR0
 431 0034 00000000 		.word	pFile
 432 0038 00000000 		.word	acBuffer
 433              		.cfi_endproc
 434              	.LFE65:
 435              		.size	ReadSD, .-ReadSD
 436              		.section	.text.SendFile,"ax",%progbits
 437              		.align	2
 438              		.global	SendFile
 439              		.thumb
ARM GAS  C:\Users\nikod\AppData\Local\Temp\ccdnJtot.s 			page 12


 440              		.thumb_func
 441              		.type	SendFile, %function
 442              	SendFile:
 443              	.LFB66:
  90:main.c        ****     unsigned int i=0;
 444              		.loc 1 90 0
 445              		.cfi_startproc
 446              		@ args = 0, pretend = 0, frame = 0
 447              		@ frame_needed = 0, uses_anonymous_args = 0
 448 0000 30B5     		push	{r4, r5, lr}
 449              		.cfi_def_cfa_offset 12
 450              		.cfi_offset 4, -12
 451              		.cfi_offset 5, -8
 452              		.cfi_offset 14, -4
 453 0002 83B0     		sub	sp, sp, #12
 454              		.cfi_def_cfa_offset 24
 455              	.LVL38:
  92:main.c        ****     while(acBuffer[i]!='\r'){
 456              		.loc 1 92 0
 457 0004 5425     		movs	r5, #84
  91:main.c        ****     char aux='T';
 458              		.loc 1 91 0
 459 0006 0022     		movs	r2, #0
  93:main.c        ****         switch(acBuffer[i]){
 460              		.loc 1 93 0
 461 0008 0CE0     		b	.L35
 462              	.LVL39:
 463              	.L40:
  94:main.c        ****         case 'T':
 464              		.loc 1 94 0
 465 000a 542B     		cmp	r3, #84
 466 000c 08D0     		beq	.L42
 467 000e 562B     		cmp	r3, #86
 468 0010 02D0     		beq	.L38
 469 0012 532B     		cmp	r3, #83
 470 0014 05D1     		bne	.L37
 471 0016 01E0     		b	.L39
 472              	.L38:
 473              	.LVL40:
  99:main.c        ****             break;
 474              		.loc 1 99 0
 475 0018 5625     		movs	r5, #86
 100:main.c        ****         case 'S':
 476              		.loc 1 100 0
 477 001a 02E0     		b	.L37
 478              	.LVL41:
 479              	.L39:
 102:main.c        ****             break;
 480              		.loc 1 102 0
 481 001c 5325     		movs	r5, #83
 103:main.c        ****         default:
 482              		.loc 1 103 0
 483 001e 00E0     		b	.L37
 484              	.LVL42:
 485              	.L42:
  96:main.c        ****             break;
 486              		.loc 1 96 0
ARM GAS  C:\Users\nikod\AppData\Local\Temp\ccdnJtot.s 			page 13


 487 0020 5425     		movs	r5, #84
 488              	.LVL43:
 489              	.L37:
 107:main.c        ****     }
 490              		.loc 1 107 0
 491 0022 0132     		adds	r2, r2, #1
 492              	.LVL44:
 493              	.L35:
  93:main.c        ****         switch(acBuffer[i]){
 494              		.loc 1 93 0
 495 0024 084B     		ldr	r3, .L44
 496 0026 9B5C     		ldrb	r3, [r3, r2]	@ zero_extendqisi2
 497 0028 0D2B     		cmp	r3, #13
 498 002a EED1     		bne	.L40
 499              	.LVL45:
 500              	.L41:
 111:main.c        ****             UART_PutString(temperatura);
 501              		.loc 1 111 0
 502 002c 064A     		ldr	r2, .L44
 503 002e 1379     		ldrb	r3, [r2, #4]	@ zero_extendqisi2
 504 0030 5279     		ldrb	r2, [r2, #5]	@ zero_extendqisi2
 505 0032 064C     		ldr	r4, .L44+4
 506 0034 0092     		str	r2, [sp]
 507 0036 2A46     		mov	r2, r5
 508 0038 0549     		ldr	r1, .L44+8
 509 003a 2046     		mov	r0, r4
 510 003c FFF7FEFF 		bl	sprintf
 511              	.LVL46:
 112:main.c        ****     }
 512              		.loc 1 112 0
 513 0040 2046     		mov	r0, r4
 514 0042 FFF7FEFF 		bl	UART_PutString
 515              	.LVL47:
 516 0046 F1E7     		b	.L41
 517              	.L45:
 518              		.align	2
 519              	.L44:
 520 0048 00000000 		.word	acBuffer
 521 004c 00000000 		.word	temperatura
 522 0050 30000000 		.word	.LC5
 523              		.cfi_endproc
 524              	.LFE66:
 525              		.size	SendFile, .-SendFile
 526              		.section	.text.main,"ax",%progbits
 527              		.align	2
 528              		.global	main
 529              		.thumb
 530              		.thumb_func
 531              		.type	main, %function
 532              	main:
 533              	.LFB68:
 178:main.c        ****             }
 179:main.c        ****             break;
 180:main.c        ****         }
 181:main.c        ****     }
 182:main.c        **** }
 183:main.c        **** 
ARM GAS  C:\Users\nikod\AppData\Local\Temp\ccdnJtot.s 			page 14


 184:main.c        **** int main(void)
 185:main.c        **** {
 534              		.loc 1 185 0
 535              		.cfi_startproc
 536              		@ args = 0, pretend = 0, frame = 0
 537              		@ frame_needed = 0, uses_anonymous_args = 0
 538 0000 F8B5     		push	{r3, r4, r5, r6, r7, lr}
 539              		.cfi_def_cfa_offset 24
 540              		.cfi_offset 3, -24
 541              		.cfi_offset 4, -20
 542              		.cfi_offset 5, -16
 543              		.cfi_offset 6, -12
 544              		.cfi_offset 7, -8
 545              		.cfi_offset 14, -4
 186:main.c        ****     CyGlobalIntEnable; /* Enable global interrupts. */
 546              		.loc 1 186 0
 547              		.syntax unified
 548              	@ 186 "main.c" 1
 549 0002 62B6     		CPSIE   i
 550              	@ 0 "" 2
 187:main.c        ****     isrRX_StartEx(InterrupRx);
 551              		.loc 1 187 0
 552              		.thumb
 553              		.syntax unified
 554 0004 8048     		ldr	r0, .L54
 555 0006 FFF7FEFF 		bl	isrRX_StartEx
 556              	.LVL48:
 188:main.c        ****     //////////////////////////////////////////////////////////////
 189:main.c        ****     UART_Start();
 557              		.loc 1 189 0
 558 000a FFF7FEFF 		bl	UART_Start
 559              	.LVL49:
 190:main.c        ****     LCD_Start();
 560              		.loc 1 190 0
 561 000e FFF7FEFF 		bl	LCD_Start
 562              	.LVL50:
 191:main.c        ****     FS_Init();// Inicia Sistema de archivos
 563              		.loc 1 191 0
 564 0012 FFF7FEFF 		bl	FS_Init
 565              	.LVL51:
 192:main.c        ****     ADC_Start();
 566              		.loc 1 192 0
 567 0016 FFF7FEFF 		bl	ADC_Start
 568              	.LVL52:
 193:main.c        ****     LCD_Position(0,0);
 569              		.loc 1 193 0
 570 001a 0021     		movs	r1, #0
 571 001c 0846     		mov	r0, r1
 572 001e FFF7FEFF 		bl	LCD_Position
 573              	.LVL53:
 194:main.c        ****     LCD_PrintString("t total");
 574              		.loc 1 194 0
 575 0022 7A48     		ldr	r0, .L54+4
 576 0024 FFF7FEFF 		bl	LCD_PrintString
 577              	.LVL54:
 195:main.c        ****     LCD_Position(1,0);
 578              		.loc 1 195 0
ARM GAS  C:\Users\nikod\AppData\Local\Temp\ccdnJtot.s 			page 15


 579 0028 0021     		movs	r1, #0
 580 002a 0120     		movs	r0, #1
 581 002c FFF7FEFF 		bl	LCD_Position
 582              	.LVL55:
 196:main.c        ****     LCD_PrintString("t muestra");
 583              		.loc 1 196 0
 584 0030 7748     		ldr	r0, .L54+8
 585 0032 FFF7FEFF 		bl	LCD_PrintString
 586              	.LVL56:
 197:main.c        ****     //////////////////////////////////////////////////////////////////////////////////////
 198:main.c        ****                         /////construccion del panel en la app
 199:main.c        ****     UART_PutString("*.kwl");
 587              		.loc 1 199 0
 588 0036 7748     		ldr	r0, .L54+12
 589 0038 FFF7FEFF 		bl	UART_PutString
 590              	.LVL57:
 200:main.c        ****     UART_PutString("\r");
 591              		.loc 1 200 0
 592 003c 764C     		ldr	r4, .L54+16
 593 003e 2046     		mov	r0, r4
 594 0040 FFF7FEFF 		bl	UART_PutString
 595              	.LVL58:
 201:main.c        ****     UART_PutString("clear_panel()");
 596              		.loc 1 201 0
 597 0044 7548     		ldr	r0, .L54+20
 598 0046 FFF7FEFF 		bl	UART_PutString
 599              	.LVL59:
 202:main.c        ****     UART_PutString("\r");
 600              		.loc 1 202 0
 601 004a 2046     		mov	r0, r4
 602 004c FFF7FEFF 		bl	UART_PutString
 603              	.LVL60:
 203:main.c        ****     UART_PutString("set_grid_size(17,10)");
 604              		.loc 1 203 0
 605 0050 7348     		ldr	r0, .L54+24
 606 0052 FFF7FEFF 		bl	UART_PutString
 607              	.LVL61:
 204:main.c        ****     UART_PutString("\r");
 608              		.loc 1 204 0
 609 0056 2046     		mov	r0, r4
 610 0058 FFF7FEFF 		bl	UART_PutString
 611              	.LVL62:
 205:main.c        ****     UART_PutString("add_text(0,2,medium,L,muestras,245,240,245,)");
 612              		.loc 1 205 0
 613 005c 7148     		ldr	r0, .L54+28
 614 005e FFF7FEFF 		bl	UART_PutString
 615              	.LVL63:
 206:main.c        ****     UART_PutString("\r");
 616              		.loc 1 206 0
 617 0062 2046     		mov	r0, r4
 618 0064 FFF7FEFF 		bl	UART_PutString
 619              	.LVL64:
 207:main.c        ****     UART_PutString("add_text(0,1,medium,L,tiempo,245,240,245,)");
 620              		.loc 1 207 0
 621 0068 6F48     		ldr	r0, .L54+32
 622 006a FFF7FEFF 		bl	UART_PutString
 623              	.LVL65:
ARM GAS  C:\Users\nikod\AppData\Local\Temp\ccdnJtot.s 			page 16


 208:main.c        ****     UART_PutString("\r");
 624              		.loc 1 208 0
 625 006e 2046     		mov	r0, r4
 626 0070 FFF7FEFF 		bl	UART_PutString
 627              	.LVL66:
 209:main.c        ****     UART_PutString("add_text(0,3,medium,L,start,255,255,255,)");
 628              		.loc 1 209 0
 629 0074 6D48     		ldr	r0, .L54+36
 630 0076 FFF7FEFF 		bl	UART_PutString
 631              	.LVL67:
 210:main.c        ****     UART_PutString("\r");
 632              		.loc 1 210 0
 633 007a 2046     		mov	r0, r4
 634 007c FFF7FEFF 		bl	UART_PutString
 635              	.LVL68:
 211:main.c        ****     UART_PutString("add_text(8,0,xlarge,L,proyecto Bluetooth,0,255,0,)");
 636              		.loc 1 211 0
 637 0080 6B48     		ldr	r0, .L54+40
 638 0082 FFF7FEFF 		bl	UART_PutString
 639              	.LVL69:
 212:main.c        ****     UART_PutString("\r");
 640              		.loc 1 212 0
 641 0086 2046     		mov	r0, r4
 642 0088 FFF7FEFF 		bl	UART_PutString
 643              	.LVL70:
 213:main.c        ****     UART_PutString("add_button(16,1,21,1,4)");
 644              		.loc 1 213 0
 645 008c 6948     		ldr	r0, .L54+44
 646 008e FFF7FEFF 		bl	UART_PutString
 647              	.LVL71:
 214:main.c        ****     UART_PutString("\r");
 648              		.loc 1 214 0
 649 0092 2046     		mov	r0, r4
 650 0094 FFF7FEFF 		bl	UART_PutString
 651              	.LVL72:
 215:main.c        ****     UART_PutString("add_button(16,2,22,2,5)");
 652              		.loc 1 215 0
 653 0098 6748     		ldr	r0, .L54+48
 654 009a FFF7FEFF 		bl	UART_PutString
 655              	.LVL73:
 216:main.c        ****     UART_PutString("\r");
 656              		.loc 1 216 0
 657 009e 2046     		mov	r0, r4
 658 00a0 FFF7FEFF 		bl	UART_PutString
 659              	.LVL74:
 217:main.c        ****     UART_PutString("add_button(16,3,23,3,6)");
 660              		.loc 1 217 0
 661 00a4 6548     		ldr	r0, .L54+52
 662 00a6 FFF7FEFF 		bl	UART_PutString
 663              	.LVL75:
 218:main.c        ****     UART_PutString("\r");
 664              		.loc 1 218 0
 665 00aa 2046     		mov	r0, r4
 666 00ac FFF7FEFF 		bl	UART_PutString
 667              	.LVL76:
 219:main.c        ****     UART_PutString("add_button(16,4,7,O,o)");
 668              		.loc 1 219 0
ARM GAS  C:\Users\nikod\AppData\Local\Temp\ccdnJtot.s 			page 17


 669 00b0 6348     		ldr	r0, .L54+56
 670 00b2 FFF7FEFF 		bl	UART_PutString
 671              	.LVL77:
 220:main.c        ****     UART_PutString("\r");
 672              		.loc 1 220 0
 673 00b6 2046     		mov	r0, r4
 674 00b8 FFF7FEFF 		bl	UART_PutString
 675              	.LVL78:
 221:main.c        ****     UART_PutString("add_button(8,6,14,r,r)");
 676              		.loc 1 221 0
 677 00bc 6148     		ldr	r0, .L54+60
 678 00be FFF7FEFF 		bl	UART_PutString
 679              	.LVL79:
 222:main.c        ****     UART_PutString("\r");
 680              		.loc 1 222 0
 681 00c2 2046     		mov	r0, r4
 682 00c4 FFF7FEFF 		bl	UART_PutString
 683              	.LVL80:
 223:main.c        ****     UART_PutString("add_button(14,6,15,Y,Y)");
 684              		.loc 1 223 0
 685 00c8 5F48     		ldr	r0, .L54+64
 686 00ca FFF7FEFF 		bl	UART_PutString
 687              	.LVL81:
 224:main.c        ****     UART_PutString("\r");
 688              		.loc 1 224 0
 689 00ce 2046     		mov	r0, r4
 690 00d0 FFF7FEFF 		bl	UART_PutString
 691              	.LVL82:
 225:main.c        ****     UART_PutString("add_button(2,6,16,G,G)");
 692              		.loc 1 225 0
 693 00d4 5D48     		ldr	r0, .L54+68
 694 00d6 FFF7FEFF 		bl	UART_PutString
 695              	.LVL83:
 226:main.c        ****     UART_PutString("\r");
 696              		.loc 1 226 0
 697 00da 2046     		mov	r0, r4
 698 00dc FFF7FEFF 		bl	UART_PutString
 699              	.LVL84:
 227:main.c        ****     UART_PutString("add_button(2,3,17,B,B)");
 700              		.loc 1 227 0
 701 00e0 5B48     		ldr	r0, .L54+72
 702 00e2 FFF7FEFF 		bl	UART_PutString
 703              	.LVL85:
 228:main.c        ****     UART_PutString("\r");
 704              		.loc 1 228 0
 705 00e6 2046     		mov	r0, r4
 706 00e8 FFF7FEFF 		bl	UART_PutString
 707              	.LVL86:
 229:main.c        ****     UART_PutString("add_roll_graph(12,7,5,0.0,100.0,100,V,voltaje,X-Axis,Y-Axis,0,0,1,0,0,1,medium,
 708              		.loc 1 229 0
 709 00ec 5948     		ldr	r0, .L54+76
 710 00ee FFF7FEFF 		bl	UART_PutString
 711              	.LVL87:
 230:main.c        ****     UART_PutString("\r");
 712              		.loc 1 230 0
 713 00f2 2046     		mov	r0, r4
 714 00f4 FFF7FEFF 		bl	UART_PutString
ARM GAS  C:\Users\nikod\AppData\Local\Temp\ccdnJtot.s 			page 18


 715              	.LVL88:
 231:main.c        ****     UART_PutString("add_roll_graph(6,7,5,10.0,40.0,100,T,temperatura,X-Axis,Y-Axis,0,0,1,0,0,1,medi
 716              		.loc 1 231 0
 717 00f8 5748     		ldr	r0, .L54+80
 718 00fa FFF7FEFF 		bl	UART_PutString
 719              	.LVL89:
 232:main.c        ****     UART_PutString("\r");
 720              		.loc 1 232 0
 721 00fe 2046     		mov	r0, r4
 722 0100 FFF7FEFF 		bl	UART_PutString
 723              	.LVL90:
 233:main.c        ****     UART_PutString("add_roll_graph(0,7,5,0.0,100.0,100,S,velocidad motor,X-Axis,Y-Axis,1,0,1,0,1,1,
 724              		.loc 1 233 0
 725 0104 5548     		ldr	r0, .L54+84
 726 0106 FFF7FEFF 		bl	UART_PutString
 727              	.LVL91:
 234:main.c        ****     UART_PutString("\r");
 728              		.loc 1 234 0
 729 010a 2046     		mov	r0, r4
 730 010c FFF7FEFF 		bl	UART_PutString
 731              	.LVL92:
 235:main.c        ****     UART_PutString("add_monitor(7,1,8,,1)");
 732              		.loc 1 235 0
 733 0110 5348     		ldr	r0, .L54+88
 734 0112 FFF7FEFF 		bl	UART_PutString
 735              	.LVL93:
 236:main.c        ****     UART_PutString("\r");
 736              		.loc 1 236 0
 737 0116 2046     		mov	r0, r4
 738 0118 FFF7FEFF 		bl	UART_PutString
 739              	.LVL94:
 237:main.c        ****     UART_PutString("add_send_box(2,1,3,,m,j)");
 740              		.loc 1 237 0
 741 011c 5148     		ldr	r0, .L54+92
 742 011e FFF7FEFF 		bl	UART_PutString
 743              	.LVL95:
 238:main.c        ****     UART_PutString("\r");
 744              		.loc 1 238 0
 745 0122 2046     		mov	r0, r4
 746 0124 FFF7FEFF 		bl	UART_PutString
 747              	.LVL96:
 239:main.c        ****     UART_PutString("add_send_box(2,2,3,,m,f)");
 748              		.loc 1 239 0
 749 0128 4F48     		ldr	r0, .L54+96
 750 012a FFF7FEFF 		bl	UART_PutString
 751              	.LVL97:
 240:main.c        ****     UART_PutString("\r");
 752              		.loc 1 240 0
 753 012e 2046     		mov	r0, r4
 754 0130 FFF7FEFF 		bl	UART_PutString
 755              	.LVL98:
 241:main.c        ****     UART_PutString("set_panel_notes(,,,)");
 756              		.loc 1 241 0
 757 0134 4D48     		ldr	r0, .L54+100
 758 0136 FFF7FEFF 		bl	UART_PutString
 759              	.LVL99:
 242:main.c        ****     UART_PutString("\r");
ARM GAS  C:\Users\nikod\AppData\Local\Temp\ccdnJtot.s 			page 19


 760              		.loc 1 242 0
 761 013a 2046     		mov	r0, r4
 762 013c FFF7FEFF 		bl	UART_PutString
 763              	.LVL100:
 243:main.c        ****     UART_PutString("run()");
 764              		.loc 1 243 0
 765 0140 4B48     		ldr	r0, .L54+104
 766 0142 FFF7FEFF 		bl	UART_PutString
 767              	.LVL101:
 244:main.c        ****     UART_PutString("\r");
 768              		.loc 1 244 0
 769 0146 2046     		mov	r0, r4
 770 0148 FFF7FEFF 		bl	UART_PutString
 771              	.LVL102:
 245:main.c        ****     UART_PutString("*");
 772              		.loc 1 245 0
 773 014c 4948     		ldr	r0, .L54+108
 774 014e FFF7FEFF 		bl	UART_PutString
 775              	.LVL103:
 246:main.c        ****     UART_PutString("\r");
 776              		.loc 1 246 0
 777 0152 2046     		mov	r0, r4
 778 0154 FFF7FEFF 		bl	UART_PutString
 779              	.LVL104:
 780              	.L48:
 247:main.c        **** ///////////////////////////////////////////////////////////////////////////////////////////////////
 248:main.c        ****                         /////////variables del programa de paneles
 249:main.c        ****     //tiempo_muestreo=500; // time interval in ms for updating panel indicators 
 250:main.c        ****     int16 temp; // Roll Graph trace value
 251:main.c        ****      
 252:main.c        **** 
 253:main.c        ****     /* Place your initialization/startup code here (e.g. MyInst_Start()) */
 254:main.c        **** 
 255:main.c        ****     for(;;)
 256:main.c        ****     {
 257:main.c        ****         if(numero_de_muestra!=conteo_total){
 781              		.loc 1 257 0
 782 0158 474B     		ldr	r3, .L54+112
 783 015a 5A69     		ldr	r2, [r3, #20]
 784 015c 474B     		ldr	r3, .L54+116
 785 015e 5B68     		ldr	r3, [r3, #4]
 786 0160 9A42     		cmp	r2, r3
 787 0162 F9D0     		beq	.L48
 258:main.c        ****             if(dato_bluetooht=='r'){
 788              		.loc 1 258 0
 789 0164 444B     		ldr	r3, .L54+112
 790 0166 DB7B     		ldrb	r3, [r3, #15]	@ zero_extendqisi2
 791 0168 DBB2     		uxtb	r3, r3
 792 016a 722B     		cmp	r3, #114
 793 016c 47D1     		bne	.L49
 259:main.c        ****             CyDelay(tiempo_muestreo*995);
 794              		.loc 1 259 0
 795 016e 424D     		ldr	r5, .L54+112
 796 0170 2B8A     		ldrh	r3, [r5, #16]
 797 0172 1BB2     		sxth	r3, r3
 798 0174 40F2E330 		movw	r0, #995
 799 0178 00FB03F0 		mul	r0, r0, r3
ARM GAS  C:\Users\nikod\AppData\Local\Temp\ccdnJtot.s 			page 20


 800 017c FFF7FEFF 		bl	CyDelay
 801              	.LVL105:
 260:main.c        ****             ADC_StartConvert();
 802              		.loc 1 260 0
 803 0180 FFF7FEFF 		bl	ADC_StartConvert
 804              	.LVL106:
 261:main.c        ****             ADC_IsEndConversion(ADC_WAIT_FOR_RESULT);
 805              		.loc 1 261 0
 806 0184 0020     		movs	r0, #0
 807 0186 FFF7FEFF 		bl	ADC_IsEndConversion
 808              	.LVL107:
 262:main.c        ****             temp=100*ADC_GetResult8()/255; // actualiza Roll Graph
 809              		.loc 1 262 0
 810 018a FFF7FEFF 		bl	ADC_GetResult8
 811              	.LVL108:
 812 018e 6423     		movs	r3, #100
 813 0190 03FB00F0 		mul	r0, r3, r0
 814 0194 3A4C     		ldr	r4, .L54+120
 815 0196 84FB0034 		smull	r3, r4, r4, r0
 816 019a 0444     		add	r4, r4, r0
 817 019c C017     		asrs	r0, r0, #31
 818 019e C0EBE414 		rsb	r4, r0, r4, asr #7
 819 01a2 24B2     		sxth	r4, r4
 820              	.LVL109:
 263:main.c        ****             x=x+1;
 821              		.loc 1 263 0
 822 01a4 354F     		ldr	r7, .L54+116
 823 01a6 3B89     		ldrh	r3, [r7, #8]
 824 01a8 0133     		adds	r3, r3, #1
 825 01aa 1BB2     		sxth	r3, r3
 826 01ac 3B81     		strh	r3, [r7, #8]	@ movhi
 264:main.c        ****             sprintf(temperatura,"*T%d,%d*",temp,x);
 827              		.loc 1 264 0
 828 01ae 354E     		ldr	r6, .L54+124
 829 01b0 2246     		mov	r2, r4
 830 01b2 3549     		ldr	r1, .L54+128
 831 01b4 3046     		mov	r0, r6
 832 01b6 FFF7FEFF 		bl	sprintf
 833              	.LVL110:
 265:main.c        ****             UART_PutString(temperatura);
 834              		.loc 1 265 0
 835 01ba 3046     		mov	r0, r6
 836 01bc FFF7FEFF 		bl	UART_PutString
 837              	.LVL111:
 266:main.c        ****             sprintf(temperatura,"%d,%d\r\n",temp,x);
 838              		.loc 1 266 0
 839 01c0 B7F90830 		ldrsh	r3, [r7, #8]
 840 01c4 2246     		mov	r2, r4
 841 01c6 3149     		ldr	r1, .L54+132
 842 01c8 3046     		mov	r0, r6
 843 01ca FFF7FEFF 		bl	sprintf
 844              	.LVL112:
 267:main.c        ****             FS_FOpen(file, "w");
 845              		.loc 1 267 0
 846 01ce 3049     		ldr	r1, .L54+136
 847 01d0 2846     		mov	r0, r5
 848 01d2 FFF7FEFF 		bl	FS_FOpen
ARM GAS  C:\Users\nikod\AppData\Local\Temp\ccdnJtot.s 			page 21


 849              	.LVL113:
 268:main.c        ****             if (pFile != 0) {
 850              		.loc 1 268 0
 851 01d6 2F4B     		ldr	r3, .L54+140
 852 01d8 1C68     		ldr	r4, [r3]
 853              	.LVL114:
 854 01da 44B1     		cbz	r4, .L50
 269:main.c        ****                 FS_Write(pFile, temperatura, strlen(temperatura));// Escribe la cabecera cotrespond
 855              		.loc 1 269 0
 856 01dc 3046     		mov	r0, r6
 857 01de FFF7FEFF 		bl	strlen
 858              	.LVL115:
 859 01e2 0246     		mov	r2, r0
 860 01e4 3146     		mov	r1, r6
 861 01e6 2046     		mov	r0, r4
 862 01e8 FFF7FEFF 		bl	FS_Write
 863              	.LVL116:
 864 01ec 02E0     		b	.L51
 865              	.L50:
 270:main.c        ****             }else{
 271:main.c        ****                 LCD_PrintString("Error de escritura");
 866              		.loc 1 271 0
 867 01ee 2A48     		ldr	r0, .L54+144
 868 01f0 FFF7FEFF 		bl	LCD_PrintString
 869              	.LVL117:
 870              	.L51:
 272:main.c        ****             }
 273:main.c        ****             conteo_total++; 
 871              		.loc 1 273 0
 872 01f4 214A     		ldr	r2, .L54+116
 873 01f6 5368     		ldr	r3, [r2, #4]
 874 01f8 0133     		adds	r3, r3, #1
 875 01fa 5360     		str	r3, [r2, #4]
 876 01fc ACE7     		b	.L48
 877              	.L49:
 274:main.c        ****         }else{
 275:main.c        ****             x=0;
 878              		.loc 1 275 0
 879 01fe 1F4B     		ldr	r3, .L54+116
 880 0200 0022     		movs	r2, #0
 881 0202 1A81     		strh	r2, [r3, #8]	@ movhi
 276:main.c        ****             conteo_total=0;
 882              		.loc 1 276 0
 883 0204 5A60     		str	r2, [r3, #4]
 884 0206 A7E7     		b	.L48
 885              	.L55:
 886              		.align	2
 887              	.L54:
 888 0208 00000000 		.word	InterrupRx
 889 020c 3C000000 		.word	.LC6
 890 0210 44000000 		.word	.LC7
 891 0214 50000000 		.word	.LC8
 892 0218 58000000 		.word	.LC9
 893 021c 5C000000 		.word	.LC10
 894 0220 6C000000 		.word	.LC11
 895 0224 84000000 		.word	.LC12
 896 0228 B4000000 		.word	.LC13
ARM GAS  C:\Users\nikod\AppData\Local\Temp\ccdnJtot.s 			page 22


 897 022c E0000000 		.word	.LC14
 898 0230 0C010000 		.word	.LC15
 899 0234 40010000 		.word	.LC16
 900 0238 58010000 		.word	.LC17
 901 023c 70010000 		.word	.LC18
 902 0240 88010000 		.word	.LC19
 903 0244 A0010000 		.word	.LC20
 904 0248 B8010000 		.word	.LC21
 905 024c D0010000 		.word	.LC22
 906 0250 E8010000 		.word	.LC23
 907 0254 00020000 		.word	.LC24
 908 0258 64020000 		.word	.LC25
 909 025c CC020000 		.word	.LC26
 910 0260 34030000 		.word	.LC27
 911 0264 4C030000 		.word	.LC28
 912 0268 68030000 		.word	.LC29
 913 026c 84030000 		.word	.LC30
 914 0270 9C030000 		.word	.LC31
 915 0274 A4030000 		.word	.LC32
 916 0278 00000000 		.word	.LANCHOR0
 917 027c 00000000 		.word	.LANCHOR2
 918 0280 81808080 		.word	-2139062143
 919 0284 00000000 		.word	temperatura
 920 0288 A8030000 		.word	.LC33
 921 028c B4030000 		.word	.LC34
 922 0290 BC030000 		.word	.LC35
 923 0294 00000000 		.word	pFile
 924 0298 C0030000 		.word	.LC36
 925              		.cfi_endproc
 926              	.LFE68:
 927              		.size	main, .-main
 928              		.global	x
 929              		.global	bandera
 930              		.global	tiempo_total
 931              		.global	tiempo_muestreo
 932              		.global	numero_de_muestra
 933              		.global	conteo_total
 934              		.comm	temperatura,8,4
 935              		.comm	muestra,6,4
 936              		.global	conteo
 937              		.global	dato_bluetooht
 938              		.comm	acBuffer,200,4
 939              		.global	file
 940              		.comm	pFile,4,4
 941              		.global	ctime
 942              		.global	cspeed
 943              		.global	cvolt
 944              		.global	ctemp
 945              		.section	.rodata
 946              		.align	2
 947              		.set	.LANCHOR1,. + 0
 948              		.type	ctemp, %object
 949              		.size	ctemp, 3
 950              	ctemp:
 951 0000 542C00   		.ascii	"T,\000"
 952 0003 00       		.space	1
 953              		.type	cvolt, %object
ARM GAS  C:\Users\nikod\AppData\Local\Temp\ccdnJtot.s 			page 23


 954              		.size	cvolt, 3
 955              	cvolt:
 956 0004 562C00   		.ascii	"V,\000"
 957 0007 00       		.space	1
 958              		.type	cspeed, %object
 959              		.size	cspeed, 3
 960              	cspeed:
 961 0008 532C00   		.ascii	"S,\000"
 962 000b 00       		.space	1
 963              		.type	ctime, %object
 964              		.size	ctime, 4
 965              	ctime:
 966 000c 740D0A00 		.ascii	"t\015\012\000"
 967              		.data
 968              		.align	2
 969              		.set	.LANCHOR0,. + 0
 970              		.type	file, %object
 971              		.size	file, 15
 972              	file:
 973 0000 4441544F 		.ascii	"DATOS.txt\000"
 973      532E7478 
 973      7400
 974 000a 00000000 		.space	5
 974      00
 975              		.type	dato_bluetooht, %object
 976              		.size	dato_bluetooht, 1
 977              	dato_bluetooht:
 978 000f 30       		.byte	48
 979              		.type	tiempo_muestreo, %object
 980              		.size	tiempo_muestreo, 2
 981              	tiempo_muestreo:
 982 0010 0100     		.short	1
 983              		.type	tiempo_total, %object
 984              		.size	tiempo_total, 2
 985              	tiempo_total:
 986 0012 0100     		.short	1
 987              		.type	numero_de_muestra, %object
 988              		.size	numero_de_muestra, 4
 989              	numero_de_muestra:
 990 0014 06000000 		.word	6
 991              		.section	.rodata.str1.4,"aMS",%progbits,1
 992              		.align	2
 993              	.LC0:
 994 0000 7200     		.ascii	"r\000"
 995 0002 0000     		.space	2
 996              	.LC1:
 997 0004 4441544F 		.ascii	"DATOS%d.txt\000"
 997      5325642E 
 997      74787400 
 998              	.LC2:
 999 0010 6100     		.ascii	"a\000"
 1000 0012 0000     		.space	2
 1001              	.LC3:
 1002 0014 45726F72 		.ascii	"Eror de escritura\000"
 1002      20646520 
 1002      65736372 
 1002      69747572 
ARM GAS  C:\Users\nikod\AppData\Local\Temp\ccdnJtot.s 			page 24


 1002      6100
 1003 0026 0000     		.space	2
 1004              	.LC4:
 1005 0028 496E6963 		.ascii	"Inicio\000"
 1005      696F00
 1006 002f 00       		.space	1
 1007              	.LC5:
 1008 0030 2A256325 		.ascii	"*%c%d,%d*\000"
 1008      642C2564 
 1008      2A00
 1009 003a 0000     		.space	2
 1010              	.LC6:
 1011 003c 7420746F 		.ascii	"t total\000"
 1011      74616C00 
 1012              	.LC7:
 1013 0044 74206D75 		.ascii	"t muestra\000"
 1013      65737472 
 1013      6100
 1014 004e 0000     		.space	2
 1015              	.LC8:
 1016 0050 2A2E6B77 		.ascii	"*.kwl\000"
 1016      6C00
 1017 0056 0000     		.space	2
 1018              	.LC9:
 1019 0058 0D00     		.ascii	"\015\000"
 1020 005a 0000     		.space	2
 1021              	.LC10:
 1022 005c 636C6561 		.ascii	"clear_panel()\000"
 1022      725F7061 
 1022      6E656C28 
 1022      2900
 1023 006a 0000     		.space	2
 1024              	.LC11:
 1025 006c 7365745F 		.ascii	"set_grid_size(17,10)\000"
 1025      67726964 
 1025      5F73697A 
 1025      65283137 
 1025      2C313029 
 1026 0081 000000   		.space	3
 1027              	.LC12:
 1028 0084 6164645F 		.ascii	"add_text(0,2,medium,L,muestras,245,240,245,)\000"
 1028      74657874 
 1028      28302C32 
 1028      2C6D6564 
 1028      69756D2C 
 1029 00b1 000000   		.space	3
 1030              	.LC13:
 1031 00b4 6164645F 		.ascii	"add_text(0,1,medium,L,tiempo,245,240,245,)\000"
 1031      74657874 
 1031      28302C31 
 1031      2C6D6564 
 1031      69756D2C 
 1032 00df 00       		.space	1
 1033              	.LC14:
 1034 00e0 6164645F 		.ascii	"add_text(0,3,medium,L,start,255,255,255,)\000"
 1034      74657874 
 1034      28302C33 
ARM GAS  C:\Users\nikod\AppData\Local\Temp\ccdnJtot.s 			page 25


 1034      2C6D6564 
 1034      69756D2C 
 1035 010a 0000     		.space	2
 1036              	.LC15:
 1037 010c 6164645F 		.ascii	"add_text(8,0,xlarge,L,proyecto Bluetooth,0,255,0,)\000"
 1037      74657874 
 1037      28382C30 
 1037      2C786C61 
 1037      7267652C 
 1038 013f 00       		.space	1
 1039              	.LC16:
 1040 0140 6164645F 		.ascii	"add_button(16,1,21,1,4)\000"
 1040      62757474 
 1040      6F6E2831 
 1040      362C312C 
 1040      32312C31 
 1041              	.LC17:
 1042 0158 6164645F 		.ascii	"add_button(16,2,22,2,5)\000"
 1042      62757474 
 1042      6F6E2831 
 1042      362C322C 
 1042      32322C32 
 1043              	.LC18:
 1044 0170 6164645F 		.ascii	"add_button(16,3,23,3,6)\000"
 1044      62757474 
 1044      6F6E2831 
 1044      362C332C 
 1044      32332C33 
 1045              	.LC19:
 1046 0188 6164645F 		.ascii	"add_button(16,4,7,O,o)\000"
 1046      62757474 
 1046      6F6E2831 
 1046      362C342C 
 1046      372C4F2C 
 1047 019f 00       		.space	1
 1048              	.LC20:
 1049 01a0 6164645F 		.ascii	"add_button(8,6,14,r,r)\000"
 1049      62757474 
 1049      6F6E2838 
 1049      2C362C31 
 1049      342C722C 
 1050 01b7 00       		.space	1
 1051              	.LC21:
 1052 01b8 6164645F 		.ascii	"add_button(14,6,15,Y,Y)\000"
 1052      62757474 
 1052      6F6E2831 
 1052      342C362C 
 1052      31352C59 
 1053              	.LC22:
 1054 01d0 6164645F 		.ascii	"add_button(2,6,16,G,G)\000"
 1054      62757474 
 1054      6F6E2832 
 1054      2C362C31 
 1054      362C472C 
 1055 01e7 00       		.space	1
 1056              	.LC23:
 1057 01e8 6164645F 		.ascii	"add_button(2,3,17,B,B)\000"
ARM GAS  C:\Users\nikod\AppData\Local\Temp\ccdnJtot.s 			page 26


 1057      62757474 
 1057      6F6E2832 
 1057      2C332C31 
 1057      372C422C 
 1058 01ff 00       		.space	1
 1059              	.LC24:
 1060 0200 6164645F 		.ascii	"add_roll_graph(12,7,5,0.0,100.0,100,V,voltaje,X-Axi"
 1060      726F6C6C 
 1060      5F677261 
 1060      70682831 
 1060      322C372C 
 1061 0233 732C592D 		.ascii	"s,Y-Axis,0,0,1,0,0,1,medium,none,1,1,42,97,222)\000"
 1061      41786973 
 1061      2C302C30 
 1061      2C312C30 
 1061      2C302C31 
 1062 0263 00       		.space	1
 1063              	.LC25:
 1064 0264 6164645F 		.ascii	"add_roll_graph(6,7,5,10.0,40.0,100,T,temperatura,X-"
 1064      726F6C6C 
 1064      5F677261 
 1064      70682836 
 1064      2C372C35 
 1065 0297 41786973 		.ascii	"Axis,Y-Axis,0,0,1,0,0,1,medium,none,1,1,42,255,0)\000"
 1065      2C592D41 
 1065      7869732C 
 1065      302C302C 
 1065      312C302C 
 1066 02c9 000000   		.space	3
 1067              	.LC26:
 1068 02cc 6164645F 		.ascii	"add_roll_graph(0,7,5,0.0,100.0,100,S,velocidad moto"
 1068      726F6C6C 
 1068      5F677261 
 1068      70682830 
 1068      2C372C35 
 1069 02ff 722C582D 		.ascii	"r,X-Axis,Y-Axis,1,0,1,0,1,1,medium,none,1,1,255,0,0"
 1069      41786973 
 1069      2C592D41 
 1069      7869732C 
 1069      312C302C 
 1070 0332 2900     		.ascii	")\000"
 1071              	.LC27:
 1072 0334 6164645F 		.ascii	"add_monitor(7,1,8,,1)\000"
 1072      6D6F6E69 
 1072      746F7228 
 1072      372C312C 
 1072      382C2C31 
 1073 034a 0000     		.space	2
 1074              	.LC28:
 1075 034c 6164645F 		.ascii	"add_send_box(2,1,3,,m,j)\000"
 1075      73656E64 
 1075      5F626F78 
 1075      28322C31 
 1075      2C332C2C 
 1076 0365 000000   		.space	3
 1077              	.LC29:
 1078 0368 6164645F 		.ascii	"add_send_box(2,2,3,,m,f)\000"
ARM GAS  C:\Users\nikod\AppData\Local\Temp\ccdnJtot.s 			page 27


 1078      73656E64 
 1078      5F626F78 
 1078      28322C32 
 1078      2C332C2C 
 1079 0381 000000   		.space	3
 1080              	.LC30:
 1081 0384 7365745F 		.ascii	"set_panel_notes(,,,)\000"
 1081      70616E65 
 1081      6C5F6E6F 
 1081      74657328 
 1081      2C2C2C29 
 1082 0399 000000   		.space	3
 1083              	.LC31:
 1084 039c 72756E28 		.ascii	"run()\000"
 1084      2900
 1085 03a2 0000     		.space	2
 1086              	.LC32:
 1087 03a4 2A00     		.ascii	"*\000"
 1088 03a6 0000     		.space	2
 1089              	.LC33:
 1090 03a8 2A542564 		.ascii	"*T%d,%d*\000"
 1090      2C25642A 
 1090      00
 1091 03b1 000000   		.space	3
 1092              	.LC34:
 1093 03b4 25642C25 		.ascii	"%d,%d\015\012\000"
 1093      640D0A00 
 1094              	.LC35:
 1095 03bc 7700     		.ascii	"w\000"
 1096 03be 0000     		.space	2
 1097              	.LC36:
 1098 03c0 4572726F 		.ascii	"Error de escritura\000"
 1098      72206465 
 1098      20657363 
 1098      72697475 
 1098      726100
 1099              		.bss
 1100              		.align	2
 1101              		.set	.LANCHOR2,. + 0
 1102              		.type	bandera, %object
 1103              		.size	bandera, 1
 1104              	bandera:
 1105 0000 00       		.space	1
 1106              		.type	conteo, %object
 1107              		.size	conteo, 1
 1108              	conteo:
 1109 0001 00       		.space	1
 1110 0002 0000     		.space	2
 1111              		.type	conteo_total, %object
 1112              		.size	conteo_total, 4
 1113              	conteo_total:
 1114 0004 00000000 		.space	4
 1115              		.type	x, %object
 1116              		.size	x, 2
 1117              	x:
 1118 0008 0000     		.space	2
 1119              		.text
ARM GAS  C:\Users\nikod\AppData\Local\Temp\ccdnJtot.s 			page 28


 1120              	.Letext0:
 1121              		.file 2 "c:\\program files (x86)\\cypress\\psoc creator\\4.2\\psoc creator\\import\\gnu\\arm\\5.4.
 1122              		.file 3 "c:\\program files (x86)\\cypress\\psoc creator\\4.2\\psoc creator\\import\\gnu\\arm\\5.4.
 1123              		.file 4 "Generated_Source\\PSoC5/cytypes.h"
 1124              		.file 5 "..\\emFile_V322c\\Code\\Include\\PSoC5/FS_Types.h"
 1125              		.file 6 "Generated_Source\\PSoC5/core_cm3.h"
 1126              		.file 7 "..\\emFile_V322c\\Code\\Include\\PSoC5/FS.h"
 1127              		.file 8 "c:\\program files (x86)\\cypress\\psoc creator\\4.2\\psoc creator\\import\\gnu\\arm\\5.4.
 1128              		.file 9 "Generated_Source\\PSoC5/LCD.h"
 1129              		.file 10 "Generated_Source\\PSoC5/UART.h"
 1130              		.file 11 "Generated_Source\\PSoC5/isrRX.h"
 1131              		.file 12 "Generated_Source\\PSoC5/ADC.h"
 1132              		.file 13 "Generated_Source\\PSoC5/CyLib.h"
 1133              		.file 14 "c:\\program files (x86)\\cypress\\psoc creator\\4.2\\psoc creator\\import\\gnu\\arm\\5.4